target datalayout = "e-m:e-p270:32:32-p271:32:32-p272:64:64-i64:64-i128:128-f80:128-n8:16:32:64-S128"
target triple = "x86_64-pc-linux-gnu"

%class.RelocationHolder = type { [40 x i8] }
%class.Relocation = type <{ ptr, ptr, i32, [4 x i8] }>
%class.RelocIterator = type { ptr, ptr, ptr, ptr, ptr, i16, ptr, i16, [3 x ptr], [3 x ptr], %class.RelocationHolder }

; Function Attrs: mustprogress nounwind uwtable
define linkonce_odr hidden noundef zeroext i8 @_ZNK17NativeInstruction8ubyte_atEi(ptr noundef nonnull align 1 dereferenceable(1) %0, i32 noundef %1) #1 comdat align 2 {
  %3 = alloca ptr, align 8
  %4 = alloca i32, align 4
  store ptr %0, ptr %3, align 8
  store i32 %1, ptr %4, align 4
  %5 = load ptr, ptr %3, align 8
  %6 = load i32, ptr %4, align 4
  %7 = call noundef ptr @_ZNK17NativeInstruction7addr_atEi(ptr noundef nonnull align 1 dereferenceable(1) %5, i32 noundef %6)
  %8 = load i8, ptr %7, align 1
  ret i8 %8
}

; Function Attrs: mustprogress nounwind uwtable
define linkonce_odr hidden noundef zeroext i1 @_ZNK17NativeInstruction15has_rex2_prefixEv(ptr noundef nonnull align 1 dereferenceable(1) %0) #1 comdat align 2 {
  %2 = alloca ptr, align 8
  store ptr %0, ptr %2, align 8
  %3 = load ptr, ptr %2, align 8
  %4 = call noundef zeroext i8 @_ZNK17NativeInstruction8ubyte_atEi(ptr noundef nonnull align 1 dereferenceable(1) %3, i32 noundef 0)
  %5 = zext i8 %4 to i32
  %6 = icmp eq i32 %5, 213
  ret i1 %6
}

; Function Attrs: mustprogress nounwind uwtable
define linkonce_odr hidden void @_ZN17NativeInstruction10set_int_atEii(ptr noundef nonnull align 1 dereferenceable(1) %0, i32 noundef %1, i32 noundef %2) #1 comdat align 2 {
  %4 = alloca ptr, align 8
  %5 = alloca i32, align 4
  %6 = alloca i32, align 4
  store ptr %0, ptr %4, align 8
  store i32 %1, ptr %5, align 4
  store i32 %2, ptr %6, align 4
  %7 = load ptr, ptr %4, align 8
  %8 = load i32, ptr %6, align 4
  %9 = load i32, ptr %5, align 4
  %10 = call noundef ptr @_ZNK17NativeInstruction7addr_atEi(ptr noundef nonnull align 1 dereferenceable(1) %7, i32 noundef %9)
  store i32 %8, ptr %10, align 4
  %11 = load i32, ptr %5, align 4
  call void @_ZN17NativeInstruction5wroteEi(ptr noundef nonnull align 1 dereferenceable(1) %7, i32 noundef %11)
  ret void
}

; Function Attrs: mustprogress nounwind uwtable
define linkonce_odr hidden noundef ptr @_ZNK10NativeJump24next_instruction_addressEv(ptr noundef nonnull align 1 dereferenceable(1) %0) #1 comdat align 2 {
  %2 = alloca ptr, align 8
  store ptr %0, ptr %2, align 8
  %3 = load ptr, ptr %2, align 8
  %4 = call noundef ptr @_ZNK17NativeInstruction7addr_atEi(ptr noundef nonnull align 1 dereferenceable(1) %3, i32 noundef 5)
  ret ptr %4
}

; Function Attrs: mustprogress nounwind uwtable
define linkonce_odr hidden noundef ptr @_ZNK17NativeInstruction7addr_atEi(ptr noundef nonnull align 1 dereferenceable(1) %0, i32 noundef %1) #1 comdat align 2 {
  %3 = alloca ptr, align 8
  %4 = alloca i32, align 4
  store ptr %0, ptr %3, align 8
  store i32 %1, ptr %4, align 4
  %5 = load ptr, ptr %3, align 8
  %6 = load i32, ptr %4, align 4
  %7 = sext i32 %6 to i64
  %8 = getelementptr inbounds i8, ptr %5, i64 %7
  ret ptr %8
}

; Function Attrs: mustprogress nounwind uwtable
define linkonce_odr hidden noundef i32 @_ZNK17NativeMovConstReg16next_inst_offsetEv(ptr noundef nonnull align 1 dereferenceable(1) %0) #1 comdat align 2 {
  %2 = alloca ptr, align 8
  store ptr %0, ptr %2, align 8
  %3 = load ptr, ptr %2, align 8
  %4 = call noundef zeroext i1 @_ZNK17NativeInstruction15has_rex2_prefixEv(ptr noundef nonnull align 1 dereferenceable(1) %3)
  %5 = select i1 %4, i32 11, i32 10
  ret i32 %5
}

; Function Attrs: mustprogress nounwind uwtable
define linkonce_odr hidden void @_ZN17NativeInstruction10set_ptr_atEil(ptr noundef nonnull align 1 dereferenceable(1) %0, i32 noundef %1, i64 noundef %2) #1 comdat align 2 {
  %4 = alloca ptr, align 8
  %5 = alloca i32, align 4
  %6 = alloca i64, align 8
  store ptr %0, ptr %4, align 8
  store i32 %1, ptr %5, align 4
  store i64 %2, ptr %6, align 8
  %7 = load ptr, ptr %4, align 8
  %8 = load i64, ptr %6, align 8
  %9 = load i32, ptr %5, align 4
  %10 = call noundef ptr @_ZNK17NativeInstruction7addr_atEi(ptr noundef nonnull align 1 dereferenceable(1) %7, i32 noundef %9)
  store i64 %8, ptr %10, align 8
  %11 = load i32, ptr %5, align 4
  call void @_ZN17NativeInstruction5wroteEi(ptr noundef nonnull align 1 dereferenceable(1) %7, i32 noundef %11)
  ret void
}

; Function Attrs: mustprogress nounwind uwtable
define linkonce_odr hidden noundef i32 @_ZNK17NativeMovConstReg16data_byte_offsetEv(ptr noundef nonnull align 1 dereferenceable(1) %0) #1 comdat align 2 {
  %2 = alloca ptr, align 8
  store ptr %0, ptr %2, align 8
  %3 = load ptr, ptr %2, align 8
  %4 = call noundef zeroext i1 @_ZNK17NativeInstruction15has_rex2_prefixEv(ptr noundef nonnull align 1 dereferenceable(1) %3)
  %5 = select i1 %4, i32 3, i32 2
  ret i32 %5
}

; Function Attrs: mustprogress nounwind uwtable
define linkonce_odr hidden noundef ptr @_ZNK13RelocIterator4addrEv(ptr noundef nonnull align 8 dereferenceable(152) %0) #1 comdat align 2 {
  %2 = alloca ptr, align 8
  store ptr %0, ptr %2, align 8
  %3 = load ptr, ptr %2, align 8
  %4 = getelementptr inbounds %class.RelocIterator, ptr %3, i32 0, i32 4
  %5 = load ptr, ptr %4, align 8
  ret ptr %5
}

; Function Attrs: mustprogress nounwind uwtable
define linkonce_odr hidden noundef ptr @_ZNK10Relocation7bindingEv(ptr noundef nonnull align 8 dereferenceable(20) %0) #1 comdat align 2 {
  %2 = alloca ptr, align 8
  store ptr %0, ptr %2, align 8
  %3 = load ptr, ptr %2, align 8
  %4 = getelementptr inbounds %class.Relocation, ptr %3, i32 0, i32 1
  %5 = load ptr, ptr %4, align 8
  ret ptr %5
}

; Function Attrs: mustprogress nounwind uwtable
define linkonce_odr hidden void @_ZN10NativeJump20set_jump_destinationEPh(ptr noundef nonnull align 1 dereferenceable(1) %0, ptr noundef %1) #1 comdat align 2 {
  %3 = alloca ptr, align 8
  %4 = alloca ptr, align 8
  %5 = alloca i64, align 8
  store ptr %0, ptr %3, align 8
  store ptr %1, ptr %4, align 8
  %6 = load ptr, ptr %3, align 8
  %7 = load ptr, ptr %4, align 8
  %8 = call noundef ptr @_ZNK10NativeJump24next_instruction_addressEv(ptr noundef nonnull align 1 dereferenceable(1) %6)
  %9 = ptrtoint ptr %7 to i64
  %10 = ptrtoint ptr %8 to i64
  %11 = sub i64 %9, %10
  store i64 %11, ptr %5, align 8
  %12 = load ptr, ptr %4, align 8
  %13 = icmp eq ptr %12, inttoptr (i64 -1 to ptr)
  br i1 %13, label %14, label %15

14:                                               ; preds = %2
  store i64 -5, ptr %5, align 8
  br label %15

15:                                               ; preds = %14, %2
  %16 = load i64, ptr %5, align 8
  %17 = trunc i64 %16 to i32
  call void @_ZN17NativeInstruction10set_int_atEii(ptr noundef nonnull align 1 dereferenceable(1) %6, i32 noundef 1, i32 noundef %17)
  ret void
}

; Function Attrs: mustprogress nounwind uwtable
define linkonce_odr hidden noundef ptr @_Z13nativeJump_atPh(ptr noundef %0) #1 comdat {
  %2 = alloca ptr, align 8
  %3 = alloca ptr, align 8
  store ptr %0, ptr %2, align 8
  %4 = load ptr, ptr %2, align 8
  %5 = getelementptr inbounds i8, ptr %4, i64 0
  store ptr %5, ptr %3, align 8
  %6 = load ptr, ptr %3, align 8
  ret ptr %6
}

; Function Attrs: mustprogress nounwind uwtable
define linkonce_odr hidden noundef ptr @_ZNK17NativeMovConstReg24next_instruction_addressEv(ptr noundef nonnull align 1 dereferenceable(1) %0) #1 comdat align 2 {
  %2 = alloca ptr, align 8
  store ptr %0, ptr %2, align 8
  %3 = load ptr, ptr %2, align 8
  %4 = call noundef i32 @_ZNK17NativeMovConstReg16next_inst_offsetEv(ptr noundef nonnull align 1 dereferenceable(1) %3)
  %5 = call noundef ptr @_ZNK17NativeInstruction7addr_atEi(ptr noundef nonnull align 1 dereferenceable(1) %3, i32 noundef %4)
  ret ptr %5
}

; Function Attrs: mustprogress nounwind uwtable
define linkonce_odr hidden void @_ZN17NativeMovConstReg8set_dataEl(ptr noundef nonnull align 1 dereferenceable(1) %0, i64 noundef %1) #1 comdat align 2 {
  %3 = alloca ptr, align 8
  %4 = alloca i64, align 8
  store ptr %0, ptr %3, align 8
  store i64 %1, ptr %4, align 8
  %5 = load ptr, ptr %3, align 8
  %6 = call noundef i32 @_ZNK17NativeMovConstReg16data_byte_offsetEv(ptr noundef nonnull align 1 dereferenceable(1) %5)
  %7 = load i64, ptr %4, align 8
  call void @_ZN17NativeInstruction10set_ptr_atEil(ptr noundef nonnull align 1 dereferenceable(1) %5, i32 noundef %6, i64 noundef %7)
  ret void
}

; Function Attrs: mustprogress nounwind uwtable
define linkonce_odr hidden noundef ptr @_Z20nativeMovConstReg_atPh(ptr noundef %0) #1 comdat {
  %2 = alloca ptr, align 8
  %3 = alloca ptr, align 8
  store ptr %0, ptr %2, align 8
  %4 = load ptr, ptr %2, align 8
  %5 = getelementptr inbounds i8, ptr %4, i64 0
  store ptr %5, ptr %3, align 8
  %6 = load ptr, ptr %3, align 8
  ret ptr %6
}

; Function Attrs: mustprogress nounwind uwtable
define linkonce_odr hidden noundef ptr @_ZNK10Relocation4addrEv(ptr noundef nonnull align 8 dereferenceable(20) %0) #1 comdat align 2 {
  %2 = alloca ptr, align 8
  store ptr %0, ptr %2, align 8
  %3 = load ptr, ptr %2, align 8
  %4 = call noundef ptr @_ZNK10Relocation7bindingEv(ptr noundef nonnull align 8 dereferenceable(20) %3)
  %5 = call noundef ptr @_ZNK13RelocIterator4addrEv(ptr noundef nonnull align 8 dereferenceable(152) %4)
  ret ptr %5
}

; Function Attrs: mustprogress nounwind uwtable
define hidden void @_ZN18CompiledDirectCall17set_stub_to_cleanEP22static_stub_Relocation(ptr noundef %0) #1 align 2 {
  %2 = alloca ptr, align 8
  %3 = alloca ptr, align 8
  %4 = alloca ptr, align 8
  %5 = alloca ptr, align 8
  store ptr %0, ptr %2, align 8
  %6 = load ptr, ptr %2, align 8
  %7 = call noundef ptr @_ZNK10Relocation4addrEv(ptr noundef nonnull align 8 dereferenceable(20) %6)
  store ptr %7, ptr %3, align 8
  %8 = load ptr, ptr %3, align 8
  %9 = call noundef ptr @_Z20nativeMovConstReg_atPh(ptr noundef %8)
  store ptr %9, ptr %4, align 8
  %10 = load ptr, ptr %4, align 8
  call void @_ZN17NativeMovConstReg8set_dataEl(ptr noundef nonnull align 1 dereferenceable(1) %10, i64 noundef 0)
  %11 = load ptr, ptr %4, align 8
  %12 = call noundef ptr @_ZNK17NativeMovConstReg24next_instruction_addressEv(ptr noundef nonnull align 1 dereferenceable(1) %11)
  %13 = call noundef ptr @_Z13nativeJump_atPh(ptr noundef %12)
  store ptr %13, ptr %5, align 8
  %14 = load ptr, ptr %5, align 8
  call void @_ZN10NativeJump20set_jump_destinationEPh(ptr noundef nonnull align 1 dereferenceable(1) %14, ptr noundef inttoptr (i64 -1 to ptr))
  ret void
}