; Function Attrs: mustprogress nounwind uwtable
define hidden void @_ZN18CompiledDirectCall17set_stub_to_cleanEP22static_stub_Relocation(ptr nocapture noundef readonly %0) local_unnamed_addr #0 align 2 {
  %2 = getelementptr inbounds i8, ptr %0, i64 8
  %3 = load ptr, ptr %2, align 8
  %4 = getelementptr inbounds i8, ptr %3, i64 32
  %5 = load ptr, ptr %4, align 8
  %6 = load i8, ptr %5, align 1
  %7 = icmp eq i8 %6, -43
  %8 = select i1 %7, i32 3, i32 2
  %9 = zext nneg i32 %8 to i64
  %10 = getelementptr inbounds i8, ptr %5, i64 %9
  store i64 0, ptr %10, align 8
  tail call void @_ZN17NativeInstruction5wroteEi(ptr noundef nonnull align 1 dereferenceable(1) %5, i32 noundef %8) #4
  %11 = load i8, ptr %5, align 1
  %12 = icmp eq i8 %11, -43
  %13 = select i1 %12, i64 11, i64 10
  %14 = getelementptr inbounds i8, ptr %5, i64 %13
  %15 = getelementptr inbounds i8, ptr %14, i64 1
  store i32 -5, ptr %15, align 4
  tail call void @_ZN17NativeInstruction5wroteEi(ptr noundef nonnull align 1 dereferenceable(1) %14, i32 noundef 1) #4
  ret void
}